; Function Attrs: mustprogress uwtable
define noundef zeroext i1 @_ZNK3nix14DerivedPathMapISt3setINSt7__cxx1112basic_stringIcSt11char_traitsIcESaIcEEESt4lessIS7_ESaIS7_EEE9ChildNodeneERKSD_(ptr noundef nonnull align 8 dereferenceable(96) %0, ptr noundef nonnull align 8 dereferenceable(96) %1) local_unnamed_addr #2 align 2 personality ptr @__gxx_personality_v0 {
  %3 = alloca %"class.std::tuple", align 8
  %4 = alloca %"class.std::tuple", align 8
  %5 = getelementptr inbounds i8, ptr %0, i64 48
  store ptr %5, ptr %3, align 8, !alias.scope !16
  %6 = getelementptr inbounds i8, ptr %3, i64 8
  store ptr %0, ptr %6, align 8, !alias.scope !16
  %7 = getelementptr inbounds i8, ptr %1, i64 48
  store ptr %7, ptr %4, align 8, !alias.scope !19
  %8 = getelementptr inbounds i8, ptr %4, i64 8
  store ptr %1, ptr %8, align 8, !alias.scope !19
  %9 = call noundef zeroext i1 @_ZNSt15__tuple_compareISt5tupleIJRKSt3setINSt7__cxx1112basic_stringIcSt11char_traitsIcESaIcEEESt4lessIS7_ESaIS7_EERKSt3mapIS7_N3nix14DerivedPathMapISB_E9ChildNodeES9_SaISt4pairIKS7_SI_EEEEESQ_Lm0ELm2EE4__eqERKSQ_ST_(ptr noundef nonnull align 8 dereferenceable(16) %3, ptr noundef nonnull align 8 dereferenceable(16) %4)
  %10 = xor i1 %9, true
  ret i1 %10
}